target datalayout = "e-m:e-p270:32:32-p271:32:32-p272:64:64-i64:64-i128:128-f80:128-n8:16:32:64-S128"
target triple = "x86_64-pc-linux-gnu"

%struct.Qureg = type { i32, i32, i32, i64, i64, i32, i32, %struct.ComplexArray, %struct.ComplexArray, %struct.ComplexArray, ptr, ptr, ptr, ptr, ptr, ptr }
%struct.ComplexArray = type { ptr, ptr }
%struct.QASMLogger = type { ptr, i32, i32, i32 }

@.str.25 = private unnamed_addr constant [75 x i8] c"Restoring the discarded global phase of the previous controlled phase gate\00", align 1

; Function Attrs: nounwind uwtable
define void @qasm_recordControlledParamGate(ptr noundef byval(%struct.Qureg) align 8 %0, i32 noundef %1, i32 noundef %2, i32 noundef %3, double noundef %4) #0 {
  %6 = alloca i32, align 4
  %7 = alloca i32, align 4
  %8 = alloca i32, align 4
  %9 = alloca double, align 8
  %10 = alloca [1 x i32], align 4
  %11 = alloca [1 x double], align 8
  %12 = alloca [1 x double], align 8
  store i32 %1, ptr %6, align 4, !tbaa !25
  store i32 %2, ptr %7, align 4, !tbaa !25
  store i32 %3, ptr %8, align 4, !tbaa !25
  store double %4, ptr %9, align 8, !tbaa !29
  %13 = getelementptr inbounds nuw %struct.Qureg, ptr %0, i32 0, i32 15
  %14 = load ptr, ptr %13, align 8, !tbaa !10
  %15 = getelementptr inbounds nuw %struct.QASMLogger, ptr %14, i32 0, i32 3
  %16 = load i32, ptr %15, align 8, !tbaa !17
  %17 = icmp ne i32 %16, 0
  br i1 %17, label %19, label %18

18:                                               ; preds = %5
  br label %34

19:                                               ; preds = %5
  call void @llvm.lifetime.start.p0(i64 4, ptr %10) #7
  %20 = load i32, ptr %7, align 4, !tbaa !25
  store i32 %20, ptr %10, align 4, !tbaa !25
  call void @llvm.lifetime.start.p0(i64 8, ptr %11) #7
  %21 = load double, ptr %9, align 8, !tbaa !29
  store double %21, ptr %11, align 8, !tbaa !29
  %22 = load i32, ptr %6, align 4, !tbaa !25
  %23 = getelementptr inbounds [1 x i32], ptr %10, i64 0, i64 0
  %24 = load i32, ptr %8, align 4, !tbaa !25
  %25 = getelementptr inbounds [1 x double], ptr %11, i64 0, i64 0
  call void @addGateToQASM(ptr noundef byval(%struct.Qureg) align 8 %0, i32 noundef %22, ptr noundef %23, i32 noundef 1, i32 noundef %24, ptr noundef %25, i32 noundef 1)
  %26 = load i32, ptr %6, align 4, !tbaa !25
  %27 = icmp eq i32 %26, 11
  br i1 %27, label %28, label %33

28:                                               ; preds = %19
  call void (ptr, ptr, ...) @qasm_recordComment(ptr noundef byval(%struct.Qureg) align 8 %0, ptr noundef @.str.25)
  call void @llvm.lifetime.start.p0(i64 8, ptr %12) #7
  %29 = load double, ptr %9, align 8, !tbaa !29
  %30 = fdiv double %29, 2.000000e+00
  store double %30, ptr %12, align 8, !tbaa !29
  %31 = load i32, ptr %8, align 4, !tbaa !25
  %32 = getelementptr inbounds [1 x double], ptr %12, i64 0, i64 0
  call void @addGateToQASM(ptr noundef byval(%struct.Qureg) align 8 %0, i32 noundef 8, ptr noundef null, i32 noundef 0, i32 noundef %31, ptr noundef %32, i32 noundef 1)
  call void @llvm.lifetime.end.p0(i64 8, ptr %12) #7
  br label %33

33:                                               ; preds = %28, %19
  call void @llvm.lifetime.end.p0(i64 8, ptr %11) #7
  call void @llvm.lifetime.end.p0(i64 4, ptr %10) #7
  br label %34

34:                                               ; preds = %33, %18
  ret void
}